target datalayout = "e-m:e-p270:32:32-p271:32:32-p272:64:64-i64:64-i128:128-f80:128-n8:16:32:64-S128"
target triple = "x86_64-pc-linux-gnu"

; Function Attrs: inlinehint nounwind uwtable
define internal i32 @CompareWords(i64 noundef %0, i64 noundef %1) #5 {
  %3 = alloca i32, align 4
  %4 = alloca i64, align 8
  %5 = alloca i64, align 8
  store i64 %0, ptr %4, align 8, !tbaa !18
  store i64 %1, ptr %5, align 8, !tbaa !18
  %6 = load i64, ptr %4, align 8, !tbaa !18
  %7 = load i64, ptr %5, align 8, !tbaa !18
  %8 = icmp ugt i64 %6, %7
  br i1 %8, label %9, label %10

9:                                                ; preds = %2
  store i32 1, ptr %3, align 4
  br label %16

10:                                               ; preds = %2
  %11 = load i64, ptr %4, align 8, !tbaa !18
  %12 = load i64, ptr %5, align 8, !tbaa !18
  %13 = icmp ult i64 %11, %12
  br i1 %13, label %14, label %15

14:                                               ; preds = %10
  store i32 -1, ptr %3, align 4
  br label %16

15:                                               ; preds = %10
  store i32 0, ptr %3, align 4
  br label %16

16:                                               ; preds = %15, %14, %9
  %17 = load i32, ptr %3, align 4
  ret i32 %17
}

; Function Attrs: nounwind uwtable
define i32 @minTemp3_fast_moreThen5(ptr noundef %0, i32 noundef %1, i32 noundef %2, i32 noundef %3, i32 noundef %4, i32 noundef %5, ptr noundef %6) #0 {
  %8 = alloca i32, align 4
  %9 = alloca ptr, align 8
  %10 = alloca i32, align 4
  %11 = alloca i32, align 4
  %12 = alloca i32, align 4
  %13 = alloca i32, align 4
  %14 = alloca i32, align 4
  %15 = alloca ptr, align 8
  %16 = alloca i32, align 4
  %17 = alloca i32, align 4
  %18 = alloca i32, align 4
  %19 = alloca i32, align 4
  %20 = alloca i32, align 4
  %21 = alloca i32, align 4
  store ptr %0, ptr %9, align 8, !tbaa !3
  store i32 %1, ptr %10, align 4, !tbaa !8
  store i32 %2, ptr %11, align 4, !tbaa !8
  store i32 %3, ptr %12, align 4, !tbaa !8
  store i32 %4, ptr %13, align 4, !tbaa !8
  store i32 %5, ptr %14, align 4, !tbaa !8
  store ptr %6, ptr %15, align 8, !tbaa !12
  call void @llvm.lifetime.start.p0(i64 4, ptr %16) #7
  call void @llvm.lifetime.start.p0(i64 4, ptr %17) #7
  call void @llvm.lifetime.start.p0(i64 4, ptr %18) #7
  call void @llvm.lifetime.start.p0(i64 4, ptr %19) #7
  %22 = load i32, ptr %10, align 4, !tbaa !8
  %23 = sub nsw i32 %22, 6
  %24 = shl i32 1, %23
  store i32 %24, ptr %19, align 4, !tbaa !8
  call void @llvm.lifetime.start.p0(i64 4, ptr %20) #7
  %25 = load i32, ptr %19, align 4, !tbaa !8
  %26 = mul nsw i32 %25, 4
  store i32 %26, ptr %20, align 4, !tbaa !8
  %27 = load i32, ptr %11, align 4, !tbaa !8
  %28 = sub nsw i32 %27, 1
  store i32 %28, ptr %16, align 4, !tbaa !8
  br label %29

29:                                               ; preds = %80, %7
  %30 = load i32, ptr %16, align 4, !tbaa !8
  %31 = load i32, ptr %12, align 4, !tbaa !8
  %32 = icmp sge i32 %30, %31
  br i1 %32, label %33, label %84

33:                                               ; preds = %29
  store i32 0, ptr %17, align 4, !tbaa !8
  br label %34

34:                                               ; preds = %76, %33
  %35 = load i32, ptr %17, align 4, !tbaa !8
  %36 = load i32, ptr %19, align 4, !tbaa !8
  %37 = icmp slt i32 %35, %36
  br i1 %37, label %38, label %79

38:                                               ; preds = %34
  %39 = load ptr, ptr %9, align 8, !tbaa !3
  %40 = load i32, ptr %16, align 4, !tbaa !8
  %41 = load i32, ptr %17, align 4, !tbaa !8
  %42 = sub nsw i32 %40, %41
  %43 = load i32, ptr %13, align 4, !tbaa !8
  %44 = load i32, ptr %19, align 4, !tbaa !8
  %45 = mul nsw i32 %43, %44
  %46 = sub nsw i32 %42, %45
  %47 = sext i32 %46 to i64
  %48 = getelementptr inbounds i64, ptr %39, i64 %47
  %49 = load i64, ptr %48, align 8, !tbaa !18
  %50 = load ptr, ptr %9, align 8, !tbaa !3
  %51 = load i32, ptr %16, align 4, !tbaa !8
  %52 = load i32, ptr %17, align 4, !tbaa !8
  %53 = sub nsw i32 %51, %52
  %54 = load i32, ptr %14, align 4, !tbaa !8
  %55 = load i32, ptr %19, align 4, !tbaa !8
  %56 = mul nsw i32 %54, %55
  %57 = sub nsw i32 %53, %56
  %58 = sext i32 %57 to i64
  %59 = getelementptr inbounds i64, ptr %50, i64 %58
  %60 = load i64, ptr %59, align 8, !tbaa !18
  %61 = call i32 @CompareWords(i64 noundef %49, i64 noundef %60)
  store i32 %61, ptr %18, align 4, !tbaa !8
  %62 = load i32, ptr %18, align 4, !tbaa !8
  %63 = icmp eq i32 %62, 0
  br i1 %63, label %64, label %65

64:                                               ; preds = %38
  br label %76

65:                                               ; preds = %38
  %66 = load i32, ptr %18, align 4, !tbaa !8
  %67 = icmp eq i32 %66, -1
  br i1 %67, label %68, label %72

68:                                               ; preds = %65
  %69 = load i32, ptr %16, align 4, !tbaa !8
  %70 = add nsw i32 %69, 1
  %71 = load ptr, ptr %15, align 8, !tbaa !12
  store i32 %70, ptr %71, align 4, !tbaa !8
  store i32 0, ptr %8, align 4
  store i32 1, ptr %21, align 4
  br label %86

72:                                               ; preds = %65
  %73 = load i32, ptr %16, align 4, !tbaa !8
  %74 = add nsw i32 %73, 1
  %75 = load ptr, ptr %15, align 8, !tbaa !12
  store i32 %74, ptr %75, align 4, !tbaa !8
  store i32 1, ptr %8, align 4
  store i32 1, ptr %21, align 4
  br label %86

76:                                               ; preds = %64
  %77 = load i32, ptr %17, align 4, !tbaa !8
  %78 = add nsw i32 %77, 1
  store i32 %78, ptr %17, align 4, !tbaa !8
  br label %34, !llvm.loop !37

79:                                               ; preds = %34
  br label %80

80:                                               ; preds = %79
  %81 = load i32, ptr %20, align 4, !tbaa !8
  %82 = load i32, ptr %16, align 4, !tbaa !8
  %83 = sub nsw i32 %82, %81
  store i32 %83, ptr %16, align 4, !tbaa !8
  br label %29, !llvm.loop !38

84:                                               ; preds = %29
  %85 = load ptr, ptr %15, align 8, !tbaa !12
  store i32 0, ptr %85, align 4, !tbaa !8
  store i32 0, ptr %8, align 4
  store i32 1, ptr %21, align 4
  br label %86

86:                                               ; preds = %84, %72, %68
  call void @llvm.lifetime.end.p0(i64 4, ptr %20) #7
  call void @llvm.lifetime.end.p0(i64 4, ptr %19) #7
  call void @llvm.lifetime.end.p0(i64 4, ptr %18) #7
  call void @llvm.lifetime.end.p0(i64 4, ptr %17) #7
  call void @llvm.lifetime.end.p0(i64 4, ptr %16) #7
  %87 = load i32, ptr %8, align 4
  ret i32 %87
}