; Function Attrs: nofree norecurse nosync nounwind memory(argmem: readwrite) uwtable
define range(i32 0, 2) i32 @minTemp3_fast_moreThen5(ptr noundef readonly captures(none) %0, i32 noundef %1, i32 noundef %2, i32 noundef %3, i32 noundef %4, i32 noundef %5, ptr noundef writeonly captures(none) %6) local_unnamed_addr #5 {
  %8 = add nsw i32 %1, -6
  %.neg = shl i32 -4, %8
  %.not34.not = icmp sle i32 %2, %3
  %.not40 = icmp eq i32 %8, 31
  %or.cond = select i1 %.not34.not, i1 true, i1 %.not40
  br i1 %or.cond, label %._crit_edge36, label %.preheader.us.preheader

.preheader.us.preheader:                          ; preds = %7
  %9 = shl nuw i32 1, %8
  %10 = shl i32 %5, %8
  %11 = shl i32 %4, %8
  %12 = add nsw i32 %2, -1
  %13 = sext i32 %11 to i64
  %14 = sext i32 %10 to i64
  %smax = tail call i32 @llvm.smax.i32(i32 %9, i32 1)
  %wide.trip.count = zext nneg i32 %smax to i64
  br label %.preheader.us

.preheader.us:                                    ; preds = %.preheader.us.preheader, %._crit_edge.us
  %.02735.us = phi i32 [ %25, %._crit_edge.us ], [ %12, %.preheader.us.preheader ]
  %15 = sext i32 %.02735.us to i64
  br label %16

16:                                               ; preds = %.preheader.us, %24
  %indvars.iv = phi i64 [ 0, %.preheader.us ], [ %indvars.iv.next, %24 ]
  %17 = sub nsw i64 %15, %indvars.iv
  %18 = sub nsw i64 %17, %13
  %19 = getelementptr inbounds i64, ptr %0, i64 %18
  %20 = load i64, ptr %19, align 8, !tbaa !11
  %21 = sub nsw i64 %17, %14
  %22 = getelementptr inbounds i64, ptr %0, i64 %21
  %23 = load i64, ptr %22, align 8, !tbaa !11
  %.0.i.us = tail call range(i32 -1, 2) i32 @llvm.ucmp.i32.i64(i64 %20, i64 %23)
  switch i32 %.0.i.us, label %.split.us [
    i32 0, label %24
    i32 -1, label %.split38.us
  ]

24:                                               ; preds = %16
  %indvars.iv.next = add nuw nsw i64 %indvars.iv, 1
  %exitcond.not = icmp eq i64 %indvars.iv.next, %wide.trip.count
  br i1 %exitcond.not, label %._crit_edge.us, label %16, !llvm.loop !30

._crit_edge.us:                                   ; preds = %24
  %25 = add i32 %.02735.us, %.neg
  %.not.us = icmp slt i32 %25, %3
  br i1 %.not.us, label %._crit_edge36, label %.preheader.us, !llvm.loop !31

.split38.us:                                      ; preds = %16
  %26 = add nsw i32 %.02735.us, 1
  br label %._crit_edge36

.split.us:                                        ; preds = %16
  %27 = add nsw i32 %.02735.us, 1
  br label %._crit_edge36

._crit_edge36:                                    ; preds = %._crit_edge.us, %7, %.split.us, %.split38.us
  %.sink = phi i32 [ %27, %.split.us ], [ %26, %.split38.us ], [ 0, %7 ], [ 0, %._crit_edge.us ]
  %.0 = phi i32 [ 1, %.split.us ], [ 0, %.split38.us ], [ 0, %7 ], [ 0, %._crit_edge.us ]
  store i32 %.sink, ptr %6, align 4, !tbaa !6
  ret i32 %.0
}